target datalayout = "e-m:e-p270:32:32-p271:32:32-p272:64:64-i64:64-i128:128-f80:128-n8:16:32:64-S128"
target triple = "x86_64-unknown-linux-gnu"

%"class.google::protobuf::Reflection" = type { ptr, %"struct.google::protobuf::internal::ReflectionSchema", ptr, ptr, i32, %"class.absl::lts_20230802::once_flag", ptr }
%"struct.google::protobuf::internal::ReflectionSchema" = type { ptr, ptr, ptr, i32, i32, i32, i32, i32, i32, ptr, i32, i32, i32 }
%"class.absl::lts_20230802::once_flag" = type { %"struct.std::atomic.1" }
%"struct.std::atomic.1" = type { %"struct.std::__atomic_base.2" }
%"struct.std::__atomic_base.2" = type { i32 }

; Function Attrs: mustprogress nounwind uwtable
define linkonce_odr hidden noundef zeroext i1 @_ZNK6google8protobuf8internal16ReflectionSchema15HasExtensionSetEv(ptr noundef nonnull align 8 dereferenceable(72) %this) #4 comdat align 2 {
entry:
  %this.addr = alloca ptr, align 8
  store ptr %this, ptr %this.addr, align 8
  %this1 = load ptr, ptr %this.addr, align 8
  %extensions_offset_ = getelementptr inbounds %"struct.google::protobuf::internal::ReflectionSchema", ptr %this1, i32 0, i32 5
  %0 = load i32, ptr %extensions_offset_, align 8
  %cmp = icmp ne i32 %0, -1
  ret i1 %cmp
}

; Function Attrs: mustprogress uwtable
define noundef ptr @_ZNK6google8protobuf10Reflection26FindKnownExtensionByNumberEi(ptr noundef nonnull align 8 dereferenceable(112) %this, i32 noundef %number) #5 align 2 {
entry:
  %retval = alloca ptr, align 8
  %this.addr = alloca ptr, align 8
  %number.addr = alloca i32, align 4
  store ptr %this, ptr %this.addr, align 8
  store i32 %number, ptr %number.addr, align 4
  %this1 = load ptr, ptr %this.addr, align 8
  %schema_ = getelementptr inbounds %"class.google::protobuf::Reflection", ptr %this1, i32 0, i32 1
  %call = call noundef zeroext i1 @_ZNK6google8protobuf8internal16ReflectionSchema15HasExtensionSetEv(ptr noundef nonnull align 8 dereferenceable(72) %schema_)
  br i1 %call, label %if.end, label %if.then

if.then:                                          ; preds = %entry
  store ptr null, ptr %retval, align 8
  br label %return

if.end:                                           ; preds = %entry
  %descriptor_pool_ = getelementptr inbounds %"class.google::protobuf::Reflection", ptr %this1, i32 0, i32 2
  %0 = load ptr, ptr %descriptor_pool_, align 8
  %descriptor_ = getelementptr inbounds %"class.google::protobuf::Reflection", ptr %this1, i32 0, i32 0
  %1 = load ptr, ptr %descriptor_, align 8
  %2 = load i32, ptr %number.addr, align 4
  %call2 = call noundef ptr @_ZNK6google8protobuf14DescriptorPool21FindExtensionByNumberEPKNS0_10DescriptorEi(ptr noundef nonnull align 8 dereferenceable(96) %0, ptr noundef %1, i32 noundef %2)
  store ptr %call2, ptr %retval, align 8
  br label %return

return:                                           ; preds = %if.end, %if.then
  %3 = load ptr, ptr %retval, align 8
  ret ptr %3
}