; Function Attrs: mustprogress uwtable
define noundef ptr @_ZNK6google8protobuf10Reflection26FindKnownExtensionByNumberEi(ptr nocapture noundef nonnull readonly align 8 dereferenceable(112) %this, i32 noundef %number) local_unnamed_addr #4 align 2 {
entry:
  %extensions_offset_.i = getelementptr inbounds i8, ptr %this, i64 40
  %0 = load i32, ptr %extensions_offset_.i, align 8
  %cmp.i.not = icmp eq i32 %0, -1
  br i1 %cmp.i.not, label %return, label %if.end

if.end:                                           ; preds = %entry
  %descriptor_pool_ = getelementptr inbounds i8, ptr %this, i64 80
  %1 = load ptr, ptr %descriptor_pool_, align 8
  %2 = load ptr, ptr %this, align 8
  %call2 = tail call noundef ptr @_ZNK6google8protobuf14DescriptorPool21FindExtensionByNumberEPKNS0_10DescriptorEi(ptr noundef nonnull align 8 dereferenceable(96) %1, ptr noundef %2, i32 noundef %number)
  br label %return

return:                                           ; preds = %entry, %if.end
  %retval.0 = phi ptr [ %call2, %if.end ], [ null, %entry ]
  ret ptr %retval.0
}